; Function Attrs: mustprogress uwtable
define noundef zeroext i1 @_ZNK6icu_7710NormalizereqERKS0_(ptr noundef nonnull align 8 dereferenceable(116) %0, ptr noundef nonnull align 8 dereferenceable(116) %1) local_unnamed_addr #1 align 2 {
  %3 = icmp eq ptr %0, %1
  br i1 %3, label %_ZNK6icu_7713UnicodeStringeqERKS0_.exit.thread, label %4

4:                                                ; preds = %2
  %5 = getelementptr inbounds nuw i8, ptr %0, i64 24
  %6 = load i32, ptr %5, align 8, !tbaa !6
  %7 = getelementptr inbounds nuw i8, ptr %1, i64 24
  %8 = load i32, ptr %7, align 8, !tbaa !6
  %9 = icmp eq i32 %6, %8
  br i1 %9, label %10, label %_ZNK6icu_7713UnicodeStringeqERKS0_.exit.thread

10:                                               ; preds = %4
  %11 = getelementptr inbounds nuw i8, ptr %0, i64 28
  %12 = load i32, ptr %11, align 4, !tbaa !18
  %13 = getelementptr inbounds nuw i8, ptr %1, i64 28
  %14 = load i32, ptr %13, align 4, !tbaa !18
  %15 = icmp eq i32 %12, %14
  br i1 %15, label %16, label %_ZNK6icu_7713UnicodeStringeqERKS0_.exit.thread

16:                                               ; preds = %10
  %17 = getelementptr inbounds nuw i8, ptr %0, i64 32
  %18 = load ptr, ptr %17, align 8, !tbaa !19
  %19 = getelementptr inbounds nuw i8, ptr %1, i64 32
  %20 = load ptr, ptr %19, align 8, !tbaa !19
  %21 = load ptr, ptr %18, align 8, !tbaa !3
  %22 = getelementptr inbounds nuw i8, ptr %21, i64 24
  %23 = load ptr, ptr %22, align 8
  %24 = tail call noundef zeroext i1 %23(ptr noundef nonnull align 8 dereferenceable(8) %18, ptr noundef nonnull align 8 dereferenceable(8) %20)
  br i1 %24, label %25, label %_ZNK6icu_7713UnicodeStringeqERKS0_.exit.thread

25:                                               ; preds = %16
  %26 = getelementptr inbounds nuw i8, ptr %0, i64 48
  %27 = getelementptr inbounds nuw i8, ptr %0, i64 56
  %28 = load i16, ptr %27, align 8, !tbaa !22
  %29 = and i16 %28, 1
  %.not.i = icmp eq i16 %29, 0
  br i1 %.not.i, label %34, label %30

30:                                               ; preds = %25
  %31 = getelementptr inbounds nuw i8, ptr %1, i64 56
  %32 = load i16, ptr %31, align 8, !tbaa !22
  %33 = and i16 %32, 1
  %.not = icmp eq i16 %33, 0
  br i1 %.not, label %_ZNK6icu_7713UnicodeStringeqERKS0_.exit.thread, label %57

34:                                               ; preds = %25
  %35 = icmp slt i16 %28, 0
  %36 = ashr i16 %28, 5
  %37 = sext i16 %36 to i32
  %38 = getelementptr inbounds nuw i8, ptr %0, i64 60
  %39 = load i32, ptr %38, align 4
  %40 = select i1 %35, i32 %39, i32 %37
  %41 = getelementptr inbounds nuw i8, ptr %1, i64 56
  %42 = load i16, ptr %41, align 8, !tbaa !22
  %43 = icmp slt i16 %42, 0
  %44 = ashr i16 %42, 5
  %45 = sext i16 %44 to i32
  %46 = getelementptr inbounds nuw i8, ptr %1, i64 60
  %47 = load i32, ptr %46, align 4
  %48 = select i1 %43, i32 %47, i32 %45
  %49 = and i16 %42, 1
  %.not9.i = icmp eq i16 %49, 0
  %50 = icmp eq i32 %40, %48
  %or.cond.i = and i1 %.not9.i, %50
  br i1 %or.cond.i, label %_ZNK6icu_7713UnicodeStringeqERKS0_.exit, label %_ZNK6icu_7713UnicodeStringeqERKS0_.exit.thread

_ZNK6icu_7713UnicodeStringeqERKS0_.exit:          ; preds = %34
  %51 = and i16 %42, 2
  %.not.i.i.i = icmp eq i16 %51, 0
  %52 = getelementptr inbounds nuw i8, ptr %1, i64 58
  %53 = getelementptr inbounds nuw i8, ptr %1, i64 72
  %54 = load ptr, ptr %53, align 8
  %55 = select i1 %.not.i.i.i, ptr %54, ptr %52
  %56 = tail call noundef signext i8 @_ZNK6icu_7713UnicodeString8doEqualsEPKDsi(ptr noundef nonnull align 8 dereferenceable(64) %26, ptr noundef %55, i32 noundef %40)
  %.not10 = icmp eq i8 %56, 0
  br i1 %.not10, label %_ZNK6icu_7713UnicodeStringeqERKS0_.exit.thread, label %57

57:                                               ; preds = %30, %_ZNK6icu_7713UnicodeStringeqERKS0_.exit
  %58 = getelementptr inbounds nuw i8, ptr %0, i64 112
  %59 = load i32, ptr %58, align 8, !tbaa !23
  %60 = getelementptr inbounds nuw i8, ptr %1, i64 112
  %61 = load i32, ptr %60, align 8, !tbaa !23
  %62 = icmp eq i32 %59, %61
  br i1 %62, label %63, label %_ZNK6icu_7713UnicodeStringeqERKS0_.exit.thread

63:                                               ; preds = %57
  %64 = getelementptr inbounds nuw i8, ptr %0, i64 44
  %65 = load i32, ptr %64, align 4, !tbaa !21
  %66 = getelementptr inbounds nuw i8, ptr %1, i64 44
  %67 = load i32, ptr %66, align 4, !tbaa !21
  %68 = icmp eq i32 %65, %67
  br label %_ZNK6icu_7713UnicodeStringeqERKS0_.exit.thread

_ZNK6icu_7713UnicodeStringeqERKS0_.exit.thread:   ; preds = %34, %30, %4, %10, %16, %_ZNK6icu_7713UnicodeStringeqERKS0_.exit, %57, %63, %2
  %69 = phi i1 [ true, %2 ], [ false, %57 ], [ false, %_ZNK6icu_7713UnicodeStringeqERKS0_.exit ], [ false, %16 ], [ false, %10 ], [ false, %4 ], [ %68, %63 ], [ false, %30 ], [ false, %34 ]
  ret i1 %69
}